; Function Attrs: mustprogress nounwind uwtable
define hidden void @_ZN12JvmtiEnvBaseD2Ev(ptr noundef nonnull align 8 dereferenceable(460) %0) unnamed_addr #0 align 2 {
  %2 = getelementptr inbounds i8, ptr %0, i64 376
  %3 = load volatile ptr, ptr %2, align 8
  store volatile ptr null, ptr %2, align 8
  %.not = icmp eq ptr %3, null
  br i1 %.not, label %5, label %4

4:                                                ; preds = %1
  tail call void @_ZN11JvmtiTagMapD1Ev(ptr noundef nonnull align 8 dereferenceable(122) %3) #18
  tail call void @_Z8FreeHeapPv(ptr noundef nonnull %3) #18
  br label %5

5:                                                ; preds = %4, %1
  %6 = getelementptr inbounds i8, ptr %0, i64 8
  store i32 57005, ptr %6, align 8
  %7 = getelementptr inbounds i8, ptr %0, i64 384
  tail call void @_ZN19JvmtiEnvEventEnableD1Ev(ptr noundef nonnull align 8 dereferenceable(24) %7) #18
  ret void
}